; Function Attrs: nounwind uwtable
define ptr @l_Lean_PrettyPrinter_Formatter_pushAlign(i8 noundef zeroext %0, ptr noundef readnone captures(none) %1, ptr noundef %2, ptr noundef readnone captures(none) %3, ptr noundef readnone captures(none) %4, ptr noundef %5) local_unnamed_addr #0 {
  tail call void @lean_inc_heartbeat() #6
  %7 = tail call noalias ptr @mi_malloc_small(i64 noundef 16) #6
  %8 = icmp eq ptr %7, null
  br i1 %8, label %9, label %lean_alloc_ctor.exit

9:                                                ; preds = %6
  tail call void @lean_internal_panic_out_of_memory() #7
  unreachable

lean_alloc_ctor.exit:                             ; preds = %6
  %10 = getelementptr inbounds nuw i8, ptr %7, i64 4
  %11 = getelementptr inbounds nuw i8, ptr %7, i64 8
  store i64 0, ptr %11, align 8, !tbaa !13
  store i32 1, ptr %7, align 4, !tbaa !8
  store i32 33554448, ptr %10, align 4
  store i8 %0, ptr %11, align 1, !tbaa !17
  %12 = tail call ptr @l_Lean_PrettyPrinter_Formatter_pushWhitespace(ptr noundef nonnull %7, ptr poison, ptr noundef %2, ptr poison, ptr poison, ptr noundef %5)
  ret ptr %12
}